; Function Attrs: nofree nounwind uwtable
define noalias noundef ptr @Gia_VtaConvertToGla(ptr noundef readonly captures(none) %0, ptr noundef readonly captures(none) %1) local_unnamed_addr #2 {
  %3 = getelementptr i8, ptr %0, i64 24
  %.val = load i32, ptr %3, align 8, !tbaa !21
  %4 = getelementptr i8, ptr %1, i64 8
  %.val18 = load ptr, ptr %4, align 8, !tbaa !41
  %5 = load i32, ptr %.val18, align 4, !tbaa !42
  %6 = icmp ult i32 %.val, 2
  %7 = add i32 %.val, -1
  %8 = tail call range(i32 0, 33) i32 @llvm.ctlz.i32(i32 %7, i1 true)
  %9 = sub nuw nsw i32 32, %8
  %.09.i = select i1 %6, i32 %.val, i32 %9
  %notmask = shl nsw i32 -1, %.09.i
  %10 = xor i32 %notmask, -1
  %11 = tail call noalias dereferenceable_or_null(16) ptr @malloc(i64 noundef 16) #11
  %or.cond.i.i = icmp ult i32 %7, 15
  %spec.store.select.i.i = select i1 %or.cond.i.i, i32 16, i32 %.val
  %12 = getelementptr inbounds nuw i8, ptr %11, i64 4
  store i32 %spec.store.select.i.i, ptr %11, align 8, !tbaa !43
  %.not.i.i = icmp eq i32 %spec.store.select.i.i, 0
  br i1 %.not.i.i, label %Vec_IntAlloc.exit.thread.i, label %Vec_IntAlloc.exit.i

Vec_IntAlloc.exit.thread.i:                       ; preds = %2
  %13 = getelementptr inbounds nuw i8, ptr %11, i64 8
  store ptr null, ptr %13, align 8, !tbaa !41
  store i32 %.val, ptr %12, align 4, !tbaa !44
  br label %Vec_IntStart.exit

Vec_IntAlloc.exit.i:                              ; preds = %2
  %14 = sext i32 %spec.store.select.i.i to i64
  %15 = shl nsw i64 %14, 2
  %16 = tail call noalias ptr @malloc(i64 noundef %15) #11
  %17 = getelementptr inbounds nuw i8, ptr %11, i64 8
  store ptr %16, ptr %17, align 8, !tbaa !41
  store i32 %.val, ptr %12, align 4, !tbaa !44
  %.not.i = icmp eq ptr %16, null
  br i1 %.not.i, label %Vec_IntStart.exit, label %18

18:                                               ; preds = %Vec_IntAlloc.exit.i
  %19 = sext i32 %.val to i64
  %20 = shl nsw i64 %19, 2
  tail call void @llvm.memset.p0.i64(ptr nonnull align 4 %16, i8 0, i64 %20, i1 false)
  br label %Vec_IntStart.exit

Vec_IntStart.exit:                                ; preds = %Vec_IntAlloc.exit.thread.i, %Vec_IntAlloc.exit.i, %18
  %.val23 = phi ptr [ null, %Vec_IntAlloc.exit.thread.i ], [ null, %Vec_IntAlloc.exit.i ], [ %16, %18 ]
  %21 = add nsw i32 %5, 2
  %22 = getelementptr i8, ptr %1, i64 4
  %.val2024 = load i32, ptr %22, align 4, !tbaa !44
  %23 = icmp slt i32 %21, %.val2024
  br i1 %23, label %.lr.ph, label %.critedge

.lr.ph:                                           ; preds = %Vec_IntStart.exit
  %24 = sext i32 %21 to i64
  %25 = sext i32 %.val2024 to i64
  br label %26

26:                                               ; preds = %.lr.ph, %26
  %indvars.iv = phi i64 [ %24, %.lr.ph ], [ %indvars.iv.next, %26 ]
  %27 = getelementptr inbounds i32, ptr %.val18, i64 %indvars.iv
  %28 = load i32, ptr %27, align 4, !tbaa !42
  %29 = and i32 %28, %10
  %30 = zext nneg i32 %29 to i64
  %31 = getelementptr inbounds nuw i32, ptr %.val23, i64 %30
  %32 = load i32, ptr %31, align 4, !tbaa !42
  %33 = add nsw i32 %32, 1
  store i32 %33, ptr %31, align 4, !tbaa !42
  %indvars.iv.next = add nsw i64 %indvars.iv, 1
  %34 = icmp slt i64 %indvars.iv.next, %25
  br i1 %34, label %26, label %.critedge, !llvm.loop !45

.critedge:                                        ; preds = %26, %Vec_IntStart.exit
  store i32 %5, ptr %.val23, align 4, !tbaa !42
  ret ptr %11
}